; Function Attrs: mustprogress nounwind uwtable
define hidden void @_ZN4cvc58internal6theory11quantifiers24InstStrategyUserPatternsD2Ev(ptr noundef nonnull align 8 dereferenceable(200) %this) unnamed_addr #4 align 2 personality ptr @__gxx_personality_v0 {
entry:
  store ptr getelementptr inbounds ({ [8 x ptr] }, ptr @_ZTVN4cvc58internal6theory11quantifiers24InstStrategyUserPatternsE, i64 0, i32 0, i64 2), ptr %this, align 8
  %d_counter = getelementptr inbounds i8, ptr %this, i64 152
  %_M_parent.i.i.i.i = getelementptr inbounds i8, ptr %this, i64 168
  %0 = load ptr, ptr %_M_parent.i.i.i.i, align 8
  invoke void @_ZNSt8_Rb_treeIN4cvc58internal12NodeTemplateILb1EEESt4pairIKS3_iESt10_Select1stIS6_ESt4lessIS3_ESaIS6_EE8_M_eraseEPSt13_Rb_tree_nodeIS6_E(ptr noundef nonnull align 8 dereferenceable(48) %d_counter, ptr noundef %0)
          to label %_ZNSt3mapIN4cvc58internal12NodeTemplateILb1EEEiSt4lessIS3_ESaISt4pairIKS3_iEEED2Ev.exit unwind label %terminate.lpad.i.i

terminate.lpad.i.i:                               ; preds = %entry
  %1 = landingpad { ptr, i32 }
          catch ptr null
  %2 = extractvalue { ptr, i32 } %1, 0
  tail call void @__clang_call_terminate(ptr %2) #16
  unreachable

_ZNSt3mapIN4cvc58internal12NodeTemplateILb1EEEiSt4lessIS3_ESaISt4pairIKS3_iEEED2Ev.exit: ; preds = %entry
  %d_user_gen_wait = getelementptr inbounds i8, ptr %this, i64 104
  %_M_parent.i.i.i.i1 = getelementptr inbounds i8, ptr %this, i64 120
  %3 = load ptr, ptr %_M_parent.i.i.i.i1, align 8
  invoke void @_ZNSt8_Rb_treeIN4cvc58internal12NodeTemplateILb1EEESt4pairIKS3_St6vectorIS6_IS3_SaIS3_EESaIS8_EEESt10_Select1stISB_ESt4lessIS3_ESaISB_EE8_M_eraseEPSt13_Rb_tree_nodeISB_E(ptr noundef nonnull align 8 dereferenceable(48) %d_user_gen_wait, ptr noundef %3)
          to label %_ZNSt3mapIN4cvc58internal12NodeTemplateILb1EEESt6vectorIS4_IS3_SaIS3_EESaIS6_EESt4lessIS3_ESaISt4pairIKS3_S8_EEED2Ev.exit unwind label %terminate.lpad.i.i2

terminate.lpad.i.i2:                              ; preds = %_ZNSt3mapIN4cvc58internal12NodeTemplateILb1EEEiSt4lessIS3_ESaISt4pairIKS3_iEEED2Ev.exit
  %4 = landingpad { ptr, i32 }
          catch ptr null
  %5 = extractvalue { ptr, i32 } %4, 0
  tail call void @__clang_call_terminate(ptr %5) #16
  unreachable

_ZNSt3mapIN4cvc58internal12NodeTemplateILb1EEESt6vectorIS4_IS3_SaIS3_EESaIS6_EESt4lessIS3_ESaISt4pairIKS3_S8_EEED2Ev.exit: ; preds = %_ZNSt3mapIN4cvc58internal12NodeTemplateILb1EEEiSt4lessIS3_ESaISt4pairIKS3_iEEED2Ev.exit
  %d_user_gen = getelementptr inbounds i8, ptr %this, i64 56
  %_M_parent.i.i.i.i3 = getelementptr inbounds i8, ptr %this, i64 72
  %6 = load ptr, ptr %_M_parent.i.i.i.i3, align 8
  invoke void @_ZNSt8_Rb_treeIN4cvc58internal12NodeTemplateILb1EEESt4pairIKS3_St6vectorIPNS1_6theory11quantifiers4inst7TriggerESaISB_EEESt10_Select1stISE_ESt4lessIS3_ESaISE_EE8_M_eraseEPSt13_Rb_tree_nodeISE_E(ptr noundef nonnull align 8 dereferenceable(48) %d_user_gen, ptr noundef %6)
          to label %_ZNSt3mapIN4cvc58internal12NodeTemplateILb1EEESt6vectorIPNS1_6theory11quantifiers4inst7TriggerESaIS9_EESt4lessIS3_ESaISt4pairIKS3_SB_EEED2Ev.exit unwind label %terminate.lpad.i.i4

terminate.lpad.i.i4:                              ; preds = %_ZNSt3mapIN4cvc58internal12NodeTemplateILb1EEESt6vectorIS4_IS3_SaIS3_EESaIS6_EESt4lessIS3_ESaISt4pairIKS3_S8_EEED2Ev.exit
  %7 = landingpad { ptr, i32 }
          catch ptr null
  %8 = extractvalue { ptr, i32 } %7, 0
  tail call void @__clang_call_terminate(ptr %8) #16
  unreachable

_ZNSt3mapIN4cvc58internal12NodeTemplateILb1EEESt6vectorIPNS1_6theory11quantifiers4inst7TriggerESaIS9_EESt4lessIS3_ESaISt4pairIKS3_SB_EEED2Ev.exit: ; preds = %_ZNSt3mapIN4cvc58internal12NodeTemplateILb1EEESt6vectorIS4_IS3_SaIS3_EESaIS6_EESt4lessIS3_ESaISt4pairIKS3_S8_EEED2Ev.exit
  tail call void @_ZN4cvc58internal6theory11quantifiers12InstStrategyD2Ev(ptr noundef nonnull align 8 dereferenceable(56) %this) #17
  ret void
}